; Function Attrs: mustprogress uwtable
define hidden void @ncnn_copy_make_border(ptr noundef %0, ptr noundef %1, i32 noundef %2, i32 noundef %3, i32 noundef %4, i32 noundef %5, i32 noundef %6, float noundef nofpclass(nan inf) %7, ptr noundef readonly %8) local_unnamed_addr #1 {
  %10 = alloca %"class.ncnn::Option", align 8
  %.not = icmp eq ptr %8, null
  br i1 %.not, label %12, label %11

11:                                               ; preds = %9
  call void @llvm.memcpy.p0.p0.i64(ptr noundef nonnull align 8 dereferenceable(64) %10, ptr noundef nonnull align 8 dereferenceable(64) %8, i64 64, i1 false)
  br label %13

12:                                               ; preds = %9
  call void @_ZN4ncnn6OptionC1Ev(ptr noundef nonnull align 8 dereferenceable(64) %10)
  br label %13

13:                                               ; preds = %12, %11
  call void @_ZN4ncnn16copy_make_borderERKNS_3MatERS0_iiiiifRKNS_6OptionE(ptr noundef nonnull align 8 dereferenceable(72) %0, ptr noundef nonnull align 8 dereferenceable(72) %1, i32 noundef %2, i32 noundef %3, i32 noundef %4, i32 noundef %5, i32 noundef %6, float noundef nofpclass(nan inf) %7, ptr noundef nonnull align 8 dereferenceable(64) %10)
  ret void
}